; Function Attrs: inlinehint nofree nounwind uwtable
define internal fastcc i32 @Abc_ZddUniqueCreate(ptr noundef captures(none) %0, i32 noundef %1, i32 noundef %2, i32 noundef %3) unnamed_addr #2 {
  %5 = icmp eq i32 %2, 0
  br i1 %5, label %.loopexit, label %6

6:                                                ; preds = %4
  %7 = getelementptr inbounds nuw i8, ptr %0, i64 24
  %8 = load ptr, ptr %7, align 8, !tbaa !10
  %9 = mul nsw i32 %1, 12582917
  %10 = mul nsw i32 %2, 4256249
  %11 = add nsw i32 %10, %9
  %12 = mul nsw i32 %3, 741457
  %13 = add nsw i32 %11, %12
  %14 = getelementptr inbounds nuw i8, ptr %0, i64 16
  %15 = load i32, ptr %14, align 8, !tbaa !17
  %16 = and i32 %15, %13
  %17 = zext i32 %16 to i64
  %18 = getelementptr inbounds nuw i32, ptr %8, i64 %17
  %19 = load i32, ptr %18, align 4, !tbaa !3
  %.not41 = icmp eq i32 %19, 0
  br i1 %.not41, label %._crit_edge, label %.lr.ph

.lr.ph:                                           ; preds = %6
  %20 = getelementptr inbounds nuw i8, ptr %0, i64 48
  %21 = load ptr, ptr %20, align 8, !tbaa !18
  %22 = getelementptr inbounds nuw i8, ptr %0, i64 32
  br label %23

23:                                               ; preds = %.lr.ph, %38
  %24 = phi i32 [ %19, %.lr.ph ], [ %41, %38 ]
  %25 = sext i32 %24 to i64
  %26 = getelementptr inbounds %struct.Abc_ZddObj_, ptr %21, i64 %25
  %27 = load i32, ptr %26, align 4
  %28 = and i32 %27, 2147483647
  %29 = icmp eq i32 %28, %1
  br i1 %29, label %30, label %38

30:                                               ; preds = %23
  %31 = getelementptr inbounds nuw i8, ptr %26, i64 4
  %32 = load i32, ptr %31, align 4, !tbaa !19
  %33 = icmp eq i32 %32, %2
  br i1 %33, label %34, label %38

34:                                               ; preds = %30
  %35 = getelementptr inbounds nuw i8, ptr %26, i64 8
  %36 = load i32, ptr %35, align 4, !tbaa !21
  %37 = icmp eq i32 %36, %3
  br i1 %37, label %.loopexit, label %38

38:                                               ; preds = %23, %30, %34
  %39 = load ptr, ptr %22, align 8, !tbaa !22
  %40 = getelementptr inbounds i32, ptr %39, i64 %25
  %41 = load i32, ptr %40, align 4, !tbaa !3
  %.not = icmp eq i32 %41, 0
  br i1 %.not, label %._crit_edge.loopexit, label %23, !llvm.loop !23

._crit_edge.loopexit:                             ; preds = %38
  %42 = getelementptr inbounds i32, ptr %39, i64 %25
  br label %._crit_edge

._crit_edge:                                      ; preds = %._crit_edge.loopexit, %6
  %.0.lcssa = phi ptr [ %18, %6 ], [ %42, %._crit_edge.loopexit ]
  %43 = getelementptr inbounds nuw i8, ptr %0, i64 4
  %44 = load i32, ptr %43, align 4, !tbaa !24
  %45 = getelementptr inbounds nuw i8, ptr %0, i64 8
  %46 = load i32, ptr %45, align 8, !tbaa !25
  %47 = icmp eq i32 %44, %46
  br i1 %47, label %48, label %52

48:                                               ; preds = %._crit_edge
  %49 = tail call i32 (ptr, ...) @printf(ptr noundef nonnull dereferenceable(1) @.str.16, i32 noundef %44)
  %50 = load ptr, ptr @stdout, align 8, !tbaa !26
  %51 = tail call i32 @fflush(ptr noundef %50)
  %.pre = load i32, ptr %43, align 4, !tbaa !24
  br label %52

52:                                               ; preds = %48, %._crit_edge
  %53 = phi i32 [ %.pre, %48 ], [ %44, %._crit_edge ]
  %54 = add nsw i32 %53, 1
  store i32 %54, ptr %43, align 4, !tbaa !24
  store i32 %53, ptr %.0.lcssa, align 4, !tbaa !3
  %55 = getelementptr inbounds nuw i8, ptr %0, i64 48
  %56 = load ptr, ptr %55, align 8, !tbaa !18
  %57 = sext i32 %53 to i64
  %58 = getelementptr inbounds %struct.Abc_ZddObj_, ptr %56, i64 %57
  %59 = load i32, ptr %58, align 4
  %60 = and i32 %1, 2147483647
  %61 = and i32 %59, -2147483648
  %62 = or disjoint i32 %61, %60
  store i32 %62, ptr %58, align 4
  %63 = load ptr, ptr %55, align 8, !tbaa !18
  %64 = load i32, ptr %.0.lcssa, align 4, !tbaa !3
  %65 = sext i32 %64 to i64
  %66 = getelementptr inbounds %struct.Abc_ZddObj_, ptr %63, i64 %65, i32 1
  store i32 %2, ptr %66, align 4, !tbaa !19
  %67 = load i32, ptr %.0.lcssa, align 4, !tbaa !3
  %68 = sext i32 %67 to i64
  %69 = getelementptr inbounds %struct.Abc_ZddObj_, ptr %63, i64 %68, i32 2
  store i32 %3, ptr %69, align 4, !tbaa !21
  %70 = load i32, ptr %.0.lcssa, align 4, !tbaa !3
  br label %.loopexit

.loopexit:                                        ; preds = %34, %52, %4
  %.035 = phi i32 [ %3, %4 ], [ %70, %52 ], [ %24, %34 ]
  ret i32 %.035
}